; ModuleID = 'source-C-CXX/61/1381.c'
source_filename = "source-C-CXX/61/1381.c"
target datalayout = "e-m:e-p270:32:32-p271:32:32-p272:64:64-i64:64-f80:128-n8:16:32:64-S128"
target triple = "x86_64-pc-linux-gnu"

; Function Attrs: nounwind sspstrong uwtable
define dso_local i32 @main() local_unnamed_addr #0 {
  %1 = tail call noalias align 16 dereferenceable_or_null(100) i8* @malloc(i64 100) #4
  %2 = tail call i32 (i8*, ...) bitcast (i32 (...)* @gets to i32 (i8*, ...)*)(i8* %1) #4
  %3 = load i8, i8* %1, align 16, !tbaa !5
  %4 = icmp eq i8 %3, 0
  br i1 %4, label %38, label %5

5:                                                ; preds = %0, %34
  %6 = phi i64 [ %11, %34 ], [ 0, %0 ]
  %7 = phi i64 [ %37, %34 ], [ 1, %0 ]
  %8 = phi i8 [ %35, %34 ], [ %3, %0 ]
  %9 = phi i8* [ %12, %34 ], [ %1, %0 ]
  %10 = getelementptr inbounds i8, i8* %9, i64 1
  %11 = add nuw i64 %6, 1
  %12 = getelementptr inbounds i8, i8* %1, i64 %11
  %13 = icmp eq i8 %8, 32
  br i1 %13, label %19, label %34

14:                                               ; preds = %25
  %15 = load i8, i8* %9, align 1, !tbaa !5
  br label %16

16:                                               ; preds = %14, %22
  %17 = phi i8 [ %15, %14 ], [ 32, %22 ]
  %18 = icmp eq i8 %17, 32
  br i1 %18, label %19, label %34

19:                                               ; preds = %5, %16
  %20 = load i8, i8* %10, align 1, !tbaa !5
  %21 = icmp eq i8 %20, 32
  br i1 %21, label %22, label %34

22:                                               ; preds = %19
  %23 = load i8, i8* %12, align 1, !tbaa !5
  %24 = icmp eq i8 %23, 0
  br i1 %24, label %16, label %25, !llvm.loop !8

25:                                               ; preds = %22, %25
  %26 = phi i64 [ %30, %25 ], [ %7, %22 ]
  %27 = phi i8* [ %31, %25 ], [ %12, %22 ]
  %28 = getelementptr inbounds i8, i8* %27, i64 1
  %29 = load i8, i8* %28, align 1, !tbaa !5
  store i8 %29, i8* %27, align 1, !tbaa !5
  %30 = add nuw i64 %26, 1
  %31 = getelementptr inbounds i8, i8* %1, i64 %30
  %32 = load i8, i8* %31, align 1, !tbaa !5
  %33 = icmp eq i8 %32, 0
  br i1 %33, label %14, label %25, !llvm.loop !10

34:                                               ; preds = %19, %16, %5
  %35 = load i8, i8* %12, align 1, !tbaa !5
  %36 = icmp eq i8 %35, 0
  %37 = add nuw i64 %7, 1
  br i1 %36, label %38, label %5, !llvm.loop !11

38:                                               ; preds = %34, %0
  %39 = tail call i32 @puts(i8* nonnull dereferenceable(1) %1)
  ret i32 0
}

; Function Attrs: inaccessiblememonly mustprogress nofree nounwind willreturn
declare noalias noundef align 16 i8* @malloc(i64 noundef) local_unnamed_addr #1

declare i32 @gets(...) local_unnamed_addr #2

; Function Attrs: nofree nounwind
declare noundef i32 @puts(i8* nocapture noundef readonly) local_unnamed_addr #3


!llvm.module.flags = !{!0, !1, !2, !3}
!llvm.ident = !{!4}

!0 = !{i32 1, !"wchar_size", i32 4}
!1 = !{i32 7, !"PIC Level", i32 2}
!2 = !{i32 7, !"PIE Level", i32 2}
!3 = !{i32 7, !"uwtable", i32 1}
!4 = !{!"clang version 13.0.0"}
!5 = !{!6, !6, i64 0}
!6 = !{!"omnipotent char", !7, i64 0}
!7 = !{!"Simple C/C++ TBAA"}
!8 = distinct !{!8, !9}
!9 = !{!"llvm.loop.mustprogress"}
!10 = distinct !{!10, !9}
!11 = distinct !{!11, !9}
